(lp0
F0.000227
aF4e-06
aF4e-06
aF9e-06
aF1.3e-05
aF2.4e-05
aF2.9e-05
aF5.7e-05
aF0.000117
aF0.000232
aF0.000497
aF0.001008
aF0.002001
aF0.004592
aF0.008564
aF0.016652
aF0.032154
aF0.065074
aF0.135494
aF0.269019
aF0.530861
aF1.408989
aF2.652591
aF4.965175
aF8.620571
aF18.214398
aF34.807826
aF69.379011
aF134.199257
aF230.174861
aF459.20068
aF925.759261
aF1836.79282
aF3684.093669
aF7571.227418
a.