(lp0
F4.6e-05
aF8e-06
aF8e-06
aF1.4e-05
aF1.7e-05
aF2.8e-05
aF5.2e-05
aF0.000101
aF0.000207
aF0.000388
aF0.000791
aF0.001568
aF0.003086
aF0.006242
aF0.012407
aF0.024687
aF0.0478
aF0.062064
aF0.125328
aF0.245333
aF0.457059
aF0.90609
aF1.755549
aF3.357366
aF6.922433
aF14.585593
aF31.772678
aF62.350888
aF121.798144
aF244.335247
a.