(lp0
F0.00015
aF8.3e-05
aF7e-06
aF2.6e-05
aF1.5e-05
aF2.8e-05
aF4.7e-05
aF9.4e-05
aF0.000115
aF0.000288
aF0.000453
aF0.00083
aF0.002128
aF0.003896
aF0.008157
aF0.01568
aF0.038241
aF0.076264
aF0.147529
aF0.328172
aF0.684417
aF1.299098
aF2.148575
aF4.319396
aF9.400658
aF21.98615
aF38.04354
aF76.940025
aF156.171345
aF299.516611
a.