(lp0
F0.000101
aF1.3e-05
aF1e-05
aF1.8e-05
aF1.7e-05
aF3.1e-05
aF5.6e-05
aF0.000103
aF0.000194
aF0.000388
aF0.000882
aF0.001571
aF0.003309
aF0.006865
aF0.013847
aF0.028305
aF0.052395
aF0.111875
aF0.22013
aF0.417582
aF0.833424
aF1.398717
aF2.034405
aF4.096863
aF7.825979
aF15.983382
aF36.694949
aF67.492756
aF134.389368
aF276.75164
aF581.298554
aF1121.546857
aF2314.533966
aF4386.28159
aF9365.074144
a.