(lp0
F5.2e-05
aF2.4e-05
aF8e-06
aF1.5e-05
aF1.5e-05
aF2.4e-05
aF4.4e-05
aF8.5e-05
aF0.000162
aF0.000321
aF0.000642
aF0.001276
aF0.002504
aF0.004835
aF0.009418
aF0.017577
aF0.030832
aF0.045269
aF0.078599
aF0.156851
aF0.31855
aF0.633573
aF1.261447
aF2.525954
aF5.050671
aF10.137983
aF20.196507
aF40.34199
aF80.787046
aF161.514611
aF324.107806
aF647.553715
aF1298.431533
aF2622.198832
aF5240.878497
a.